target datalayout = "e-m:e-p270:32:32-p271:32:32-p272:64:64-i64:64-i128:128-f80:128-n8:16:32:64-S128"
target triple = "x86_64-pc-linux-gnu"

%struct.curl_mimepart = type { ptr, ptr, i32, i32, ptr, ptr, ptr, ptr, ptr, ptr, ptr, ptr, ptr, ptr, ptr, i64, %struct.mime_state, ptr, %struct.mime_encoder_state, i64 }
%struct.mime_state = type { i32, ptr, i64 }
%struct.mime_encoder_state = type { i64, i64, i64, [256 x i8] }
%struct.curl_mime = type { ptr, ptr, ptr, [47 x i8], %struct.mime_state }

@Curl_cmalloc = external global ptr, align 8

; Function Attrs: nounwind uwtable
define internal void @mimesetstate(ptr noundef %0, i32 noundef %1, ptr noundef %2) #0 {
  %4 = alloca ptr, align 8
  %5 = alloca i32, align 4
  %6 = alloca ptr, align 8
  store ptr %0, ptr %4, align 8, !tbaa !57
  store i32 %1, ptr %5, align 4, !tbaa !45
  store ptr %2, ptr %6, align 8, !tbaa !22
  %7 = load i32, ptr %5, align 4, !tbaa !45
  %8 = load ptr, ptr %4, align 8, !tbaa !57
  %9 = getelementptr inbounds nuw %struct.mime_state, ptr %8, i32 0, i32 0
  store i32 %7, ptr %9, align 8, !tbaa !59
  %10 = load ptr, ptr %6, align 8, !tbaa !22
  %11 = load ptr, ptr %4, align 8, !tbaa !57
  %12 = getelementptr inbounds nuw %struct.mime_state, ptr %11, i32 0, i32 1
  store ptr %10, ptr %12, align 8, !tbaa !60
  %13 = load ptr, ptr %4, align 8, !tbaa !57
  %14 = getelementptr inbounds nuw %struct.mime_state, ptr %13, i32 0, i32 2
  store i64 0, ptr %14, align 8, !tbaa !61
  ret void
}

; Function Attrs: nounwind uwtable
define dso_local void @Curl_mime_initpart(ptr noundef %0) #0 {
  %2 = alloca ptr, align 8
  store ptr %0, ptr %2, align 8, !tbaa !4
  %3 = load ptr, ptr %2, align 8, !tbaa !4
  call void @llvm.memset.p0.i64(ptr align 1 %3, i8 0, i64 440, i1 false)
  %4 = load ptr, ptr %2, align 8, !tbaa !4
  %5 = getelementptr inbounds nuw %struct.curl_mimepart, ptr %4, i32 0, i32 19
  store i64 1, ptr %5, align 8, !tbaa !34
  %6 = load ptr, ptr %2, align 8, !tbaa !4
  %7 = getelementptr inbounds nuw %struct.curl_mimepart, ptr %6, i32 0, i32 16
  call void @mimesetstate(ptr noundef %7, i32 noundef 0, ptr noundef null)
  ret void
}

; Function Attrs: nounwind uwtable
define dso_local ptr @curl_mime_addpart(ptr noundef %0) #0 {
  %2 = alloca ptr, align 8
  %3 = alloca ptr, align 8
  %4 = alloca ptr, align 8
  %5 = alloca i32, align 4
  store ptr %0, ptr %3, align 8, !tbaa !36
  call void @llvm.lifetime.start.p0(i64 8, ptr %4) #8
  %6 = load ptr, ptr %3, align 8, !tbaa !36
  %7 = icmp ne ptr %6, null
  br i1 %7, label %9, label %8

8:                                                ; preds = %1
  store ptr null, ptr %2, align 8
  store i32 1, ptr %5, align 4
  br label %39

9:                                                ; preds = %1
  %10 = load ptr, ptr @Curl_cmalloc, align 8, !tbaa !22
  %11 = call ptr %10(i64 noundef 440)
  store ptr %11, ptr %4, align 8, !tbaa !4
  %12 = load ptr, ptr %4, align 8, !tbaa !4
  %13 = icmp ne ptr %12, null
  br i1 %13, label %14, label %37

14:                                               ; preds = %9
  %15 = load ptr, ptr %4, align 8, !tbaa !4
  call void @Curl_mime_initpart(ptr noundef %15)
  %16 = load ptr, ptr %3, align 8, !tbaa !36
  %17 = load ptr, ptr %4, align 8, !tbaa !4
  %18 = getelementptr inbounds nuw %struct.curl_mimepart, ptr %17, i32 0, i32 0
  store ptr %16, ptr %18, align 8, !tbaa !56
  %19 = load ptr, ptr %3, align 8, !tbaa !36
  %20 = getelementptr inbounds nuw %struct.curl_mime, ptr %19, i32 0, i32 2
  %21 = load ptr, ptr %20, align 8, !tbaa !55
  %22 = icmp ne ptr %21, null
  br i1 %22, label %23, label %29

23:                                               ; preds = %14
  %24 = load ptr, ptr %4, align 8, !tbaa !4
  %25 = load ptr, ptr %3, align 8, !tbaa !36
  %26 = getelementptr inbounds nuw %struct.curl_mime, ptr %25, i32 0, i32 2
  %27 = load ptr, ptr %26, align 8, !tbaa !55
  %28 = getelementptr inbounds nuw %struct.curl_mimepart, ptr %27, i32 0, i32 1
  store ptr %24, ptr %28, align 8, !tbaa !39
  br label %33

29:                                               ; preds = %14
  %30 = load ptr, ptr %4, align 8, !tbaa !4
  %31 = load ptr, ptr %3, align 8, !tbaa !36
  %32 = getelementptr inbounds nuw %struct.curl_mime, ptr %31, i32 0, i32 1
  store ptr %30, ptr %32, align 8, !tbaa !37
  br label %33

33:                                               ; preds = %29, %23
  %34 = load ptr, ptr %4, align 8, !tbaa !4
  %35 = load ptr, ptr %3, align 8, !tbaa !36
  %36 = getelementptr inbounds nuw %struct.curl_mime, ptr %35, i32 0, i32 2
  store ptr %34, ptr %36, align 8, !tbaa !55
  br label %37

37:                                               ; preds = %33, %9
  %38 = load ptr, ptr %4, align 8, !tbaa !4
  store ptr %38, ptr %2, align 8
  store i32 1, ptr %5, align 4
  br label %39

39:                                               ; preds = %37, %8
  call void @llvm.lifetime.end.p0(i64 8, ptr %4) #8
  %40 = load ptr, ptr %2, align 8
  ret ptr %40
}