; Function Attrs: nounwind uwtable
define dso_local ptr @curl_mime_addpart(ptr noundef %0) local_unnamed_addr #0 {
  %.not = icmp eq ptr %0, null
  br i1 %.not, label %12, label %2

2:                                                ; preds = %1
  %3 = load ptr, ptr @Curl_cmalloc, align 8, !tbaa !29
  %4 = tail call ptr %3(i64 noundef 440) #18
  %.not17 = icmp eq ptr %4, null
  br i1 %.not17, label %12, label %5

5:                                                ; preds = %2
  %6 = getelementptr inbounds nuw i8, ptr %4, i64 8
  tail call void @llvm.memset.p0.i64(ptr noundef nonnull align 1 dereferenceable(440) %6, i8 0, i64 424, i1 false)
  %7 = getelementptr inbounds nuw i8, ptr %4, i64 432
  store i64 1, ptr %7, align 8, !tbaa !25
  %8 = getelementptr inbounds nuw i8, ptr %4, i64 128
  tail call void @llvm.memset.p0.i64(ptr noundef nonnull align 8 dereferenceable(16) %8, i8 0, i64 16, i1 false)
  store ptr %0, ptr %4, align 8, !tbaa !42
  %9 = getelementptr inbounds nuw i8, ptr %0, i64 16
  %10 = load ptr, ptr %9, align 8, !tbaa !45
  %.not18 = icmp eq ptr %10, null
  %. = select i1 %.not18, ptr %0, ptr %10
  %11 = getelementptr inbounds nuw i8, ptr %., i64 8
  store ptr %4, ptr %11, align 8, !tbaa !44
  store ptr %4, ptr %9, align 8, !tbaa !45
  br label %12

12:                                               ; preds = %2, %5, %1
  %.0 = phi ptr [ null, %1 ], [ %4, %5 ], [ null, %2 ]
  ret ptr %.0
}